target datalayout = "e-m:e-p270:32:32-p271:32:32-p272:64:64-i64:64-i128:128-f80:128-n8:16:32:64-S128"
target triple = "x86_64-pc-linux-gnu"

%struct.evp_Encode_Ctx_st = type { i32, i32, [80 x i8], i32, i32 }

@.str = private unnamed_addr constant [31 x i8] c"../openssl/crypto/evp/encode.c\00", align 1
@.str.2 = private unnamed_addr constant [49 x i8] c"assertion failed: n < (int)sizeof(ctx->enc_data)\00", align 1

; Function Attrs: nounwind uwtable
define internal zeroext i8 @conv_ascii2bin(i8 noundef zeroext %0, ptr noundef %1) #0 {
  %3 = alloca i8, align 1
  %4 = alloca i8, align 1
  %5 = alloca ptr, align 8
  store i8 %0, ptr %4, align 1, !tbaa !21
  store ptr %1, ptr %5, align 8, !tbaa !15
  %6 = load i8, ptr %4, align 1, !tbaa !21
  %7 = zext i8 %6 to i32
  %8 = and i32 %7, 128
  %9 = icmp ne i32 %8, 0
  br i1 %9, label %10, label %11

10:                                               ; preds = %2
  store i8 -1, ptr %3, align 1
  br label %17

11:                                               ; preds = %2
  %12 = load ptr, ptr %5, align 8, !tbaa !15
  %13 = load i8, ptr %4, align 1, !tbaa !21
  %14 = zext i8 %13 to i64
  %15 = getelementptr inbounds nuw i8, ptr %12, i64 %14
  %16 = load i8, ptr %15, align 1, !tbaa !21
  store i8 %16, ptr %3, align 1
  br label %17

17:                                               ; preds = %11, %10
  %18 = load i8, ptr %3, align 1
  ret i8 %18
}

; Function Attrs: nounwind uwtable
define i32 @EVP_DecodeUpdate(ptr noundef %0, ptr noundef %1, ptr noundef %2, ptr noundef %3, i32 noundef %4) #0 {
  %6 = alloca ptr, align 8
  %7 = alloca ptr, align 8
  %8 = alloca ptr, align 8
  %9 = alloca ptr, align 8
  %10 = alloca i32, align 4
  %11 = alloca i32, align 4
  %12 = alloca i32, align 4
  %13 = alloca i32, align 4
  %14 = alloca i32, align 4
  %15 = alloca i32, align 4
  %16 = alloca i32, align 4
  %17 = alloca i32, align 4
  %18 = alloca i32, align 4
  %19 = alloca i32, align 4
  %20 = alloca ptr, align 8
  %21 = alloca ptr, align 8
  store ptr %0, ptr %6, align 8, !tbaa !3
  store ptr %1, ptr %7, align 8, !tbaa !15
  store ptr %2, ptr %8, align 8, !tbaa !17
  store ptr %3, ptr %9, align 8, !tbaa !15
  store i32 %4, ptr %10, align 4, !tbaa !11
  call void @llvm.lifetime.start.p0(i64 4, ptr %11) #5
  store i32 0, ptr %11, align 4, !tbaa !11
  call void @llvm.lifetime.start.p0(i64 4, ptr %12) #5
  store i32 0, ptr %12, align 4, !tbaa !11
  call void @llvm.lifetime.start.p0(i64 4, ptr %13) #5
  store i32 -1, ptr %13, align 4, !tbaa !11
  call void @llvm.lifetime.start.p0(i64 4, ptr %14) #5
  store i32 0, ptr %14, align 4, !tbaa !11
  call void @llvm.lifetime.start.p0(i64 4, ptr %15) #5
  call void @llvm.lifetime.start.p0(i64 4, ptr %16) #5
  call void @llvm.lifetime.start.p0(i64 4, ptr %17) #5
  call void @llvm.lifetime.start.p0(i64 4, ptr %18) #5
  call void @llvm.lifetime.start.p0(i64 4, ptr %19) #5
  call void @llvm.lifetime.start.p0(i64 8, ptr %20) #5
  call void @llvm.lifetime.start.p0(i64 8, ptr %21) #5
  %22 = load ptr, ptr %6, align 8, !tbaa !3
  %23 = getelementptr inbounds nuw %struct.evp_Encode_Ctx_st, ptr %22, i32 0, i32 0
  %24 = load i32, ptr %23, align 4, !tbaa !8
  store i32 %24, ptr %18, align 4, !tbaa !11
  %25 = load ptr, ptr %6, align 8, !tbaa !3
  %26 = getelementptr inbounds nuw %struct.evp_Encode_Ctx_st, ptr %25, i32 0, i32 2
  %27 = getelementptr inbounds [80 x i8], ptr %26, i64 0, i64 0
  store ptr %27, ptr %20, align 8, !tbaa !15
  %28 = load i32, ptr %18, align 4, !tbaa !11
  %29 = icmp sgt i32 %28, 0
  br i1 %29, label %30, label %57

30:                                               ; preds = %5
  %31 = load ptr, ptr %20, align 8, !tbaa !15
  %32 = load i32, ptr %18, align 4, !tbaa !11
  %33 = sub nsw i32 %32, 1
  %34 = sext i32 %33 to i64
  %35 = getelementptr inbounds i8, ptr %31, i64 %34
  %36 = load i8, ptr %35, align 1, !tbaa !21
  %37 = zext i8 %36 to i32
  %38 = icmp eq i32 %37, 61
  br i1 %38, label %39, label %57

39:                                               ; preds = %30
  %40 = load i32, ptr %12, align 4, !tbaa !11
  %41 = add nsw i32 %40, 1
  store i32 %41, ptr %12, align 4, !tbaa !11
  %42 = load i32, ptr %18, align 4, !tbaa !11
  %43 = icmp sgt i32 %42, 1
  br i1 %43, label %44, label %56

44:                                               ; preds = %39
  %45 = load ptr, ptr %20, align 8, !tbaa !15
  %46 = load i32, ptr %18, align 4, !tbaa !11
  %47 = sub nsw i32 %46, 2
  %48 = sext i32 %47 to i64
  %49 = getelementptr inbounds i8, ptr %45, i64 %48
  %50 = load i8, ptr %49, align 1, !tbaa !21
  %51 = zext i8 %50 to i32
  %52 = icmp eq i32 %51, 61
  br i1 %52, label %53, label %56

53:                                               ; preds = %44
  %54 = load i32, ptr %12, align 4, !tbaa !11
  %55 = add nsw i32 %54, 1
  store i32 %55, ptr %12, align 4, !tbaa !11
  br label %56

56:                                               ; preds = %53, %44, %39
  br label %57

57:                                               ; preds = %56, %30, %5
  %58 = load i32, ptr %10, align 4, !tbaa !11
  %59 = icmp eq i32 %58, 0
  br i1 %59, label %60, label %61

60:                                               ; preds = %57
  store i32 0, ptr %13, align 4, !tbaa !11
  br label %211

61:                                               ; preds = %57
  %62 = load ptr, ptr %6, align 8, !tbaa !3
  %63 = getelementptr inbounds nuw %struct.evp_Encode_Ctx_st, ptr %62, i32 0, i32 4
  %64 = load i32, ptr %63, align 4, !tbaa !12
  %65 = and i32 %64, 2
  %66 = icmp ne i32 %65, 0
  br i1 %66, label %67, label %68

67:                                               ; preds = %61
  store ptr @srpdata_ascii2bin, ptr %21, align 8, !tbaa !15
  br label %69

68:                                               ; preds = %61
  store ptr @data_ascii2bin, ptr %21, align 8, !tbaa !15
  br label %69

69:                                               ; preds = %68, %67
  store i32 0, ptr %15, align 4, !tbaa !11
  br label %70

70:                                               ; preds = %161, %69
  %71 = load i32, ptr %15, align 4, !tbaa !11
  %72 = load i32, ptr %10, align 4, !tbaa !11
  %73 = icmp slt i32 %71, %72
  br i1 %73, label %74, label %164

74:                                               ; preds = %70
  %75 = load ptr, ptr %9, align 8, !tbaa !15
  %76 = getelementptr inbounds nuw i8, ptr %75, i32 1
  store ptr %76, ptr %9, align 8, !tbaa !15
  %77 = load i8, ptr %75, align 1, !tbaa !21
  %78 = zext i8 %77 to i32
  store i32 %78, ptr %17, align 4, !tbaa !11
  %79 = load i32, ptr %17, align 4, !tbaa !11
  %80 = trunc i32 %79 to i8
  %81 = load ptr, ptr %21, align 8, !tbaa !15
  %82 = call zeroext i8 @conv_ascii2bin(i8 noundef zeroext %80, ptr noundef %81)
  %83 = zext i8 %82 to i32
  store i32 %83, ptr %16, align 4, !tbaa !11
  %84 = load i32, ptr %16, align 4, !tbaa !11
  %85 = icmp eq i32 %84, 255
  br i1 %85, label %86, label %87

86:                                               ; preds = %74
  store i32 -1, ptr %13, align 4, !tbaa !11
  br label %211

87:                                               ; preds = %74
  %88 = load i32, ptr %17, align 4, !tbaa !11
  %89 = icmp eq i32 %88, 61
  br i1 %89, label %90, label %93

90:                                               ; preds = %87
  %91 = load i32, ptr %12, align 4, !tbaa !11
  %92 = add nsw i32 %91, 1
  store i32 %92, ptr %12, align 4, !tbaa !11
  br label %102

93:                                               ; preds = %87
  %94 = load i32, ptr %12, align 4, !tbaa !11
  %95 = icmp sgt i32 %94, 0
  br i1 %95, label %96, label %101

96:                                               ; preds = %93
  %97 = load i32, ptr %16, align 4, !tbaa !11
  %98 = or i32 %97, 19
  %99 = icmp eq i32 %98, 243
  br i1 %99, label %101, label %100

100:                                              ; preds = %96
  store i32 -1, ptr %13, align 4, !tbaa !11
  br label %211

101:                                              ; preds = %96, %93
  br label %102

102:                                              ; preds = %101, %90
  %103 = load i32, ptr %12, align 4, !tbaa !11
  %104 = icmp sgt i32 %103, 2
  br i1 %104, label %105, label %106

105:                                              ; preds = %102
  store i32 -1, ptr %13, align 4, !tbaa !11
  br label %211

106:                                              ; preds = %102
  %107 = load i32, ptr %16, align 4, !tbaa !11
  %108 = icmp eq i32 %107, 242
  br i1 %108, label %109, label %110

109:                                              ; preds = %106
  store i32 1, ptr %11, align 4, !tbaa !11
  br label %165

110:                                              ; preds = %106
  %111 = load i32, ptr %16, align 4, !tbaa !11
  %112 = or i32 %111, 19
  %113 = icmp eq i32 %112, 243
  br i1 %113, label %132, label %114

114:                                              ; preds = %110
  %115 = load i32, ptr %18, align 4, !tbaa !11
  %116 = icmp sge i32 %115, 64
  br i1 %116, label %117, label %118

117:                                              ; preds = %114
  store i32 -1, ptr %13, align 4, !tbaa !11
  br label %211

118:                                              ; preds = %114
  %119 = load i32, ptr %18, align 4, !tbaa !11
  %120 = icmp slt i32 %119, 80
  br i1 %120, label %121, label %122

121:                                              ; preds = %118
  br label %124

122:                                              ; preds = %118
  call void @OPENSSL_die(ptr noundef @.str.2, ptr noundef @.str, i32 noundef 367) #6
  unreachable

123:                                              ; No predecessors!
  br label %124

124:                                              ; preds = %123, %121
  %125 = load i32, ptr %17, align 4, !tbaa !11
  %126 = trunc i32 %125 to i8
  %127 = load ptr, ptr %20, align 8, !tbaa !15
  %128 = load i32, ptr %18, align 4, !tbaa !11
  %129 = add nsw i32 %128, 1
  store i32 %129, ptr %18, align 4, !tbaa !11
  %130 = sext i32 %128 to i64
  %131 = getelementptr inbounds i8, ptr %127, i64 %130
  store i8 %126, ptr %131, align 1, !tbaa !21
  br label %132

132:                                              ; preds = %124, %110
  %133 = load i32, ptr %18, align 4, !tbaa !11
  %134 = icmp eq i32 %133, 64
  br i1 %134, label %135, label %160

135:                                              ; preds = %132
  %136 = load ptr, ptr %6, align 8, !tbaa !3
  %137 = load ptr, ptr %7, align 8, !tbaa !15
  %138 = load ptr, ptr %20, align 8, !tbaa !15
  %139 = load i32, ptr %18, align 4, !tbaa !11
  %140 = call i32 @evp_decodeblock_int(ptr noundef %136, ptr noundef %137, ptr noundef %138, i32 noundef %139)
  store i32 %140, ptr %19, align 4, !tbaa !11
  store i32 0, ptr %18, align 4, !tbaa !11
  %141 = load i32, ptr %19, align 4, !tbaa !11
  %142 = icmp slt i32 %141, 0
  br i1 %142, label %147, label %143

143:                                              ; preds = %135
  %144 = load i32, ptr %12, align 4, !tbaa !11
  %145 = load i32, ptr %19, align 4, !tbaa !11
  %146 = icmp sgt i32 %144, %145
  br i1 %146, label %147, label %148

147:                                              ; preds = %143, %135
  store i32 -1, ptr %13, align 4, !tbaa !11
  br label %211

148:                                              ; preds = %143
  %149 = load i32, ptr %19, align 4, !tbaa !11
  %150 = load i32, ptr %12, align 4, !tbaa !11
  %151 = sub nsw i32 %149, %150
  %152 = load i32, ptr %14, align 4, !tbaa !11
  %153 = add nsw i32 %152, %151
  store i32 %153, ptr %14, align 4, !tbaa !11
  %154 = load i32, ptr %19, align 4, !tbaa !11
  %155 = load i32, ptr %12, align 4, !tbaa !11
  %156 = sub nsw i32 %154, %155
  %157 = load ptr, ptr %7, align 8, !tbaa !15
  %158 = sext i32 %156 to i64
  %159 = getelementptr inbounds i8, ptr %157, i64 %158
  store ptr %159, ptr %7, align 8, !tbaa !15
  br label %160

160:                                              ; preds = %148, %132
  br label %161

161:                                              ; preds = %160
  %162 = load i32, ptr %15, align 4, !tbaa !11
  %163 = add nsw i32 %162, 1
  store i32 %163, ptr %15, align 4, !tbaa !11
  br label %70, !llvm.loop !25

164:                                              ; preds = %70
  br label %165

165:                                              ; preds = %164, %109
  %166 = load i32, ptr %18, align 4, !tbaa !11
  %167 = icmp sgt i32 %166, 0
  br i1 %167, label %168, label %197

168:                                              ; preds = %165
  %169 = load i32, ptr %18, align 4, !tbaa !11
  %170 = and i32 %169, 3
  %171 = icmp eq i32 %170, 0
  br i1 %171, label %172, label %191

172:                                              ; preds = %168
  %173 = load ptr, ptr %6, align 8, !tbaa !3
  %174 = load ptr, ptr %7, align 8, !tbaa !15
  %175 = load ptr, ptr %20, align 8, !tbaa !15
  %176 = load i32, ptr %18, align 4, !tbaa !11
  %177 = call i32 @evp_decodeblock_int(ptr noundef %173, ptr noundef %174, ptr noundef %175, i32 noundef %176)
  store i32 %177, ptr %19, align 4, !tbaa !11
  store i32 0, ptr %18, align 4, !tbaa !11
  %178 = load i32, ptr %19, align 4, !tbaa !11
  %179 = icmp slt i32 %178, 0
  br i1 %179, label %184, label %180

180:                                              ; preds = %172
  %181 = load i32, ptr %12, align 4, !tbaa !11
  %182 = load i32, ptr %19, align 4, !tbaa !11
  %183 = icmp sgt i32 %181, %182
  br i1 %183, label %184, label %185

184:                                              ; preds = %180, %172
  store i32 -1, ptr %13, align 4, !tbaa !11
  br label %211

185:                                              ; preds = %180
  %186 = load i32, ptr %19, align 4, !tbaa !11
  %187 = load i32, ptr %12, align 4, !tbaa !11
  %188 = sub nsw i32 %186, %187
  %189 = load i32, ptr %14, align 4, !tbaa !11
  %190 = add nsw i32 %189, %188
  store i32 %190, ptr %14, align 4, !tbaa !11
  br label %196

191:                                              ; preds = %168
  %192 = load i32, ptr %11, align 4, !tbaa !11
  %193 = icmp ne i32 %192, 0
  br i1 %193, label %194, label %195

194:                                              ; preds = %191
  store i32 -1, ptr %13, align 4, !tbaa !11
  br label %211

195:                                              ; preds = %191
  br label %196

196:                                              ; preds = %195, %185
  br label %197

197:                                              ; preds = %196, %165
  %198 = load i32, ptr %11, align 4, !tbaa !11
  %199 = icmp ne i32 %198, 0
  br i1 %199, label %208, label %200

200:                                              ; preds = %197
  %201 = load i32, ptr %18, align 4, !tbaa !11
  %202 = icmp eq i32 %201, 0
  br i1 %202, label %203, label %206

203:                                              ; preds = %200
  %204 = load i32, ptr %12, align 4, !tbaa !11
  %205 = icmp ne i32 %204, 0
  br label %206

206:                                              ; preds = %203, %200
  %207 = phi i1 [ false, %200 ], [ %205, %203 ]
  br label %208

208:                                              ; preds = %206, %197
  %209 = phi i1 [ true, %197 ], [ %207, %206 ]
  %210 = select i1 %209, i32 0, i32 1
  store i32 %210, ptr %13, align 4, !tbaa !11
  br label %211

211:                                              ; preds = %208, %194, %184, %147, %117, %105, %100, %86, %60
  %212 = load i32, ptr %14, align 4, !tbaa !11
  %213 = load ptr, ptr %8, align 8, !tbaa !17
  store i32 %212, ptr %213, align 4, !tbaa !11
  %214 = load i32, ptr %18, align 4, !tbaa !11
  %215 = load ptr, ptr %6, align 8, !tbaa !3
  %216 = getelementptr inbounds nuw %struct.evp_Encode_Ctx_st, ptr %215, i32 0, i32 0
  store i32 %214, ptr %216, align 4, !tbaa !8
  %217 = load i32, ptr %13, align 4, !tbaa !11
  call void @llvm.lifetime.end.p0(i64 8, ptr %21) #5
  call void @llvm.lifetime.end.p0(i64 8, ptr %20) #5
  call void @llvm.lifetime.end.p0(i64 4, ptr %19) #5
  call void @llvm.lifetime.end.p0(i64 4, ptr %18) #5
  call void @llvm.lifetime.end.p0(i64 4, ptr %17) #5
  call void @llvm.lifetime.end.p0(i64 4, ptr %16) #5
  call void @llvm.lifetime.end.p0(i64 4, ptr %15) #5
  call void @llvm.lifetime.end.p0(i64 4, ptr %14) #5
  call void @llvm.lifetime.end.p0(i64 4, ptr %13) #5
  call void @llvm.lifetime.end.p0(i64 4, ptr %12) #5
  call void @llvm.lifetime.end.p0(i64 4, ptr %11) #5
  ret i32 %217
}