; Function Attrs: nofree norecurse nosync nounwind memory(argmem: readwrite) uwtable
define range(i32 -1, 2) i32 @EVP_DecodeUpdate(ptr noundef captures(address_is_null) %0, ptr noundef writeonly captures(none) %1, ptr noundef writeonly captures(none) %2, ptr noundef readonly captures(none) %3, i32 noundef %4) local_unnamed_addr #7 {
  %6 = load i32, ptr %0, align 4, !tbaa !3
  %7 = getelementptr inbounds nuw i8, ptr %0, i64 8
  %8 = icmp sgt i32 %6, 0
  br i1 %8, label %9, label %20

9:                                                ; preds = %5
  %10 = zext nneg i32 %6 to i64
  %11 = getelementptr i8, ptr %7, i64 %10
  %12 = getelementptr i8, ptr %11, i64 -1
  %13 = load i8, ptr %12, align 1, !tbaa !12
  %14 = icmp eq i8 %13, 61
  br i1 %14, label %15, label %20

15:                                               ; preds = %9
  %.not = icmp eq i32 %6, 1
  br i1 %.not, label %20, label %16

16:                                               ; preds = %15
  %17 = getelementptr i8, ptr %11, i64 -2
  %18 = load i8, ptr %17, align 1, !tbaa !12
  %19 = icmp eq i8 %18, 61
  %spec.select = select i1 %19, i32 2, i32 1
  br label %20

20:                                               ; preds = %16, %15, %9, %5
  %.076 = phi i32 [ 1, %15 ], [ 0, %9 ], [ 0, %5 ], [ %spec.select, %16 ]
  %21 = icmp eq i32 %4, 0
  br i1 %21, label %conv_ascii2bin.exit.thread, label %22

22:                                               ; preds = %20
  %23 = getelementptr inbounds nuw i8, ptr %0, i64 92
  %24 = load i32, ptr %23, align 4, !tbaa !8
  %25 = and i32 %24, 2
  %.not85 = icmp eq i32 %25, 0
  %data_ascii2bin.srpdata_ascii2bin = select i1 %.not85, ptr @data_ascii2bin, ptr @srpdata_ascii2bin
  %.not87.not100 = icmp slt i32 %4, 1
  br i1 %.not87.not100, label %.thread._crit_edge, label %.lr.ph

.lr.ph:                                           ; preds = %22, %64
  %.065106 = phi ptr [ %.1, %64 ], [ %1, %22 ]
  %.167105 = phi i32 [ %.3, %64 ], [ %6, %22 ]
  %.068104 = phi ptr [ %26, %64 ], [ %3, %22 ]
  %.070103 = phi i32 [ %65, %64 ], [ 0, %22 ]
  %.172102 = phi i32 [ %.273, %64 ], [ 0, %22 ]
  %.177101 = phi i32 [ %.27895, %64 ], [ %.076, %22 ]
  %26 = getelementptr inbounds nuw i8, ptr %.068104, i64 1
  %27 = load i8, ptr %.068104, align 1, !tbaa !12
  %.not.i = icmp sgt i8 %27, -1
  br i1 %.not.i, label %conv_ascii2bin.exit, label %conv_ascii2bin.exit.thread

conv_ascii2bin.exit:                              ; preds = %.lr.ph
  %28 = zext nneg i8 %27 to i64
  %29 = getelementptr inbounds nuw i8, ptr %data_ascii2bin.srpdata_ascii2bin, i64 %28
  %30 = load i8, ptr %29, align 1, !tbaa !12
  %31 = zext i8 %30 to i32
  %32 = icmp eq i8 %30, -1
  br i1 %32, label %conv_ascii2bin.exit.thread, label %33

33:                                               ; preds = %conv_ascii2bin.exit
  %34 = icmp eq i8 %27, 61
  br i1 %34, label %35, label %37

35:                                               ; preds = %33
  %36 = add nuw nsw i32 %.177101, 1
  br label %42

37:                                               ; preds = %33
  %38 = icmp sgt i32 %.177101, 0
  br i1 %38, label %39, label %.thread

39:                                               ; preds = %37
  %40 = and i32 %31, 236
  %41 = icmp eq i32 %40, 224
  br i1 %41, label %42, label %conv_ascii2bin.exit.thread

42:                                               ; preds = %39, %35
  %.278 = phi i32 [ %36, %35 ], [ %.177101, %39 ]
  %43 = icmp sgt i32 %.278, 2
  br i1 %43, label %conv_ascii2bin.exit.thread, label %.thread

.thread:                                          ; preds = %37, %42
  %.27895 = phi i32 [ %.278, %42 ], [ 0, %37 ]
  %.not119.not = icmp ne i8 %30, -14
  br i1 %.not119.not, label %44, label %.thread._crit_edge

44:                                               ; preds = %.thread
  %45 = and i32 %31, 236
  %46 = icmp eq i32 %45, 224
  br i1 %46, label %53, label %47

47:                                               ; preds = %44
  %48 = icmp sgt i32 %.167105, 63
  br i1 %48, label %conv_ascii2bin.exit.thread, label %49

49:                                               ; preds = %47
  %50 = add nsw i32 %.167105, 1
  %51 = sext i32 %.167105 to i64
  %52 = getelementptr inbounds i8, ptr %7, i64 %51
  store i8 %27, ptr %52, align 1, !tbaa !12
  br label %53

53:                                               ; preds = %49, %44
  %.2 = phi i32 [ %.167105, %44 ], [ %50, %49 ]
  %54 = icmp eq i32 %.2, 64
  br i1 %54, label %55, label %64

55:                                               ; preds = %53
  %56 = tail call fastcc i32 @evp_decodeblock_int(ptr noundef nonnull %0, ptr noundef %.065106, ptr noundef nonnull %7, i32 noundef 64)
  %57 = icmp slt i32 %56, 0
  %58 = icmp sgt i32 %.27895, %56
  %or.cond = or i1 %57, %58
  br i1 %or.cond, label %conv_ascii2bin.exit.thread, label %59

59:                                               ; preds = %55
  %60 = sub nsw i32 %56, %.27895
  %61 = add nsw i32 %60, %.172102
  %62 = sext i32 %60 to i64
  %63 = getelementptr inbounds i8, ptr %.065106, i64 %62
  br label %64

64:                                               ; preds = %53, %59
  %.273 = phi i32 [ %61, %59 ], [ %.172102, %53 ]
  %.3 = phi i32 [ 0, %59 ], [ %.2, %53 ]
  %.1 = phi ptr [ %63, %59 ], [ %.065106, %53 ]
  %65 = add nuw nsw i32 %.070103, 1
  %exitcond.not = icmp eq i32 %65, %4
  br i1 %exitcond.not, label %.thread._crit_edge, label %.lr.ph, !llvm.loop !16

.thread._crit_edge:                               ; preds = %64, %.thread, %22
  %.172.lcssa = phi i32 [ 0, %22 ], [ %.172102, %.thread ], [ %.273, %64 ]
  %.167.lcssa = phi i32 [ %6, %22 ], [ %.167105, %.thread ], [ %.3, %64 ]
  %.065.lcssa = phi ptr [ %1, %22 ], [ %.065106, %.thread ], [ %.1, %64 ]
  %.not87.not.lcssa = phi i1 [ true, %22 ], [ %.not119.not, %.thread ], [ %.not119.not, %64 ]
  %.379 = phi i32 [ %.076, %22 ], [ %.27895, %.thread ], [ %.27895, %64 ]
  %66 = icmp sgt i32 %.167.lcssa, 0
  br i1 %66, label %67, label %78

67:                                               ; preds = %.thread._crit_edge
  %68 = and i32 %.167.lcssa, 3
  %69 = icmp eq i32 %68, 0
  br i1 %69, label %70, label %77

70:                                               ; preds = %67
  %71 = tail call fastcc i32 @evp_decodeblock_int(ptr noundef nonnull %0, ptr noundef %.065.lcssa, ptr noundef nonnull %7, i32 noundef %.167.lcssa)
  %72 = icmp slt i32 %71, 0
  %73 = icmp sgt i32 %.379, %71
  %or.cond92 = or i1 %72, %73
  br i1 %or.cond92, label %conv_ascii2bin.exit.thread, label %74

74:                                               ; preds = %70
  %75 = sub i32 %.172.lcssa, %.379
  %76 = add i32 %75, %71
  br label %78

77:                                               ; preds = %67
  br i1 %.not87.not.lcssa, label %78, label %conv_ascii2bin.exit.thread

78:                                               ; preds = %74, %77, %.thread._crit_edge
  %.374 = phi i32 [ %76, %74 ], [ %.172.lcssa, %77 ], [ %.172.lcssa, %.thread._crit_edge ]
  %.4 = phi i32 [ 0, %74 ], [ %.167.lcssa, %77 ], [ %.167.lcssa, %.thread._crit_edge ]
  %79 = icmp ne i32 %.4, 0
  %80 = icmp eq i32 %.379, 0
  %.not91 = or i1 %80, %79
  %narrow = select i1 %.not87.not.lcssa, i1 %.not91, i1 false
  %not. = zext i1 %narrow to i32
  br label %conv_ascii2bin.exit.thread

conv_ascii2bin.exit.thread:                       ; preds = %.lr.ph, %55, %47, %42, %39, %conv_ascii2bin.exit, %77, %70, %20, %78
  %.075 = phi i32 [ %not., %78 ], [ 0, %20 ], [ -1, %70 ], [ -1, %77 ], [ -1, %conv_ascii2bin.exit ], [ -1, %39 ], [ -1, %42 ], [ -1, %47 ], [ -1, %55 ], [ -1, %.lr.ph ]
  %.071 = phi i32 [ %.374, %78 ], [ 0, %20 ], [ %.172.lcssa, %70 ], [ %.172.lcssa, %77 ], [ %.172102, %conv_ascii2bin.exit ], [ %.172102, %39 ], [ %.172102, %42 ], [ %.172102, %47 ], [ %.172102, %55 ], [ %.172102, %.lr.ph ]
  %.066 = phi i32 [ %.4, %78 ], [ %6, %20 ], [ 0, %70 ], [ %.167.lcssa, %77 ], [ %.167105, %.lr.ph ], [ 0, %55 ], [ %.167105, %47 ], [ %.167105, %42 ], [ %.167105, %39 ], [ %.167105, %conv_ascii2bin.exit ]
  store i32 %.071, ptr %2, align 4, !tbaa !11
  store i32 %.066, ptr %0, align 4, !tbaa !3
  ret i32 %.075
}